target datalayout = "e-m:e-p270:32:32-p271:32:32-p272:64:64-i64:64-i128:128-f80:128-n8:16:32:64-S128"
target triple = "x86_64-pc-linux-gnu"

%"class.llvm::MemoryBufferRef" = type { %"class.llvm::StringRef", %"class.llvm::StringRef" }
%"class.llvm::StringRef" = type { ptr, i64 }
%"class.clang::SourceLocation" = type { i32 }
%"struct.std::_Rb_tree_header" = type { %"struct.std::_Rb_tree_node_base", i64 }
%"struct.std::_Rb_tree_node_base" = type { i32, ptr, ptr, ptr }
%"class.(anonymous namespace)::InclusionRewriter" = type <{ %"class.clang::PPCallbacks", ptr, ptr, ptr, %"class.llvm::StringRef", %"class.llvm::MemoryBufferRef", i8, i8, [6 x i8], %"class.std::map.240", %"class.std::map.246", %"class.std::map.246", %"class.std::map.251", %"class.clang::SourceLocation", [4 x i8] }>
%"class.clang::PPCallbacks" = type { ptr }
%"class.std::map.240" = type { %"class.std::_Rb_tree.241" }
%"class.std::_Rb_tree.241" = type { %"struct.std::_Rb_tree<clang::SourceLocation, std::pair<const clang::SourceLocation, (anonymous namespace)::InclusionRewriter::IncludedFile>, std::_Select1st<std::pair<const clang::SourceLocation, (anonymous namespace)::InclusionRewriter::IncludedFile>>, std::less<clang::SourceLocation>>::_Rb_tree_impl" }
%"struct.std::_Rb_tree<clang::SourceLocation, std::pair<const clang::SourceLocation, (anonymous namespace)::InclusionRewriter::IncludedFile>, std::_Select1st<std::pair<const clang::SourceLocation, (anonymous namespace)::InclusionRewriter::IncludedFile>>, std::less<clang::SourceLocation>>::_Rb_tree_impl" = type { [8 x i8], %"struct.std::_Rb_tree_header" }
%"class.std::map.246" = type { %"class.std::_Rb_tree.247" }
%"class.std::_Rb_tree.247" = type { %"struct.std::_Rb_tree<clang::SourceLocation, std::pair<const clang::SourceLocation, const clang::Module *>, std::_Select1st<std::pair<const clang::SourceLocation, const clang::Module *>>, std::less<clang::SourceLocation>>::_Rb_tree_impl" }
%"struct.std::_Rb_tree<clang::SourceLocation, std::pair<const clang::SourceLocation, const clang::Module *>, std::_Select1st<std::pair<const clang::SourceLocation, const clang::Module *>>, std::less<clang::SourceLocation>>::_Rb_tree_impl" = type { [8 x i8], %"struct.std::_Rb_tree_header" }
%"class.std::map.251" = type { %"class.std::_Rb_tree.252" }
%"class.std::_Rb_tree.252" = type { %"struct.std::_Rb_tree<clang::SourceLocation, std::pair<const clang::SourceLocation, bool>, std::_Select1st<std::pair<const clang::SourceLocation, bool>>, std::less<clang::SourceLocation>>::_Rb_tree_impl" }
%"struct.std::_Rb_tree<clang::SourceLocation, std::pair<const clang::SourceLocation, bool>, std::_Select1st<std::pair<const clang::SourceLocation, bool>>, std::less<clang::SourceLocation>>::_Rb_tree_impl" = type { [8 x i8], %"struct.std::_Rb_tree_header" }

; Function Attrs: mustprogress nounwind uwtable
define internal void @_ZNSt15__new_allocatorISt13_Rb_tree_nodeISt4pairIKN5clang14SourceLocationEN12_GLOBAL__N_117InclusionRewriter12IncludedFileEEEED2Ev(ptr noundef nonnull align 1 dereferenceable(1) %0) unnamed_addr #0 align 2 {
  %2 = alloca ptr, align 8
  store ptr %0, ptr %2, align 8
  ret void
}

; Function Attrs: mustprogress nounwind uwtable
define linkonce_odr hidden void @_ZNSt15__new_allocatorISt13_Rb_tree_nodeISt4pairIKN5clang14SourceLocationEPKNS2_6ModuleEEEED2Ev(ptr noundef nonnull align 1 dereferenceable(1) %0) unnamed_addr #0 comdat align 2 {
  %2 = alloca ptr, align 8
  store ptr %0, ptr %2, align 8
  ret void
}

; Function Attrs: mustprogress nounwind uwtable
define linkonce_odr hidden void @_ZNSt15__new_allocatorISt13_Rb_tree_nodeISt4pairIKN5clang14SourceLocationEbEEED2Ev(ptr noundef nonnull align 1 dereferenceable(1) %0) unnamed_addr #0 comdat align 2 {
  %2 = alloca ptr, align 8
  store ptr %0, ptr %2, align 8
  ret void
}

; Function Attrs: mustprogress nounwind uwtable
define internal void @_ZNSaISt13_Rb_tree_nodeISt4pairIKN5clang14SourceLocationEN12_GLOBAL__N_117InclusionRewriter12IncludedFileEEEED2Ev(ptr noundef nonnull align 1 dereferenceable(1) %0) unnamed_addr #0 align 2 {
  %2 = alloca ptr, align 8
  store ptr %0, ptr %2, align 8
  %3 = load ptr, ptr %2, align 8
  call void @_ZNSt15__new_allocatorISt13_Rb_tree_nodeISt4pairIKN5clang14SourceLocationEN12_GLOBAL__N_117InclusionRewriter12IncludedFileEEEED2Ev(ptr noundef nonnull align 1 dereferenceable(1) %3) #11
  ret void
}

; Function Attrs: mustprogress nounwind uwtable
define internal noundef ptr @_ZNKSt8_Rb_treeIN5clang14SourceLocationESt4pairIKS1_N12_GLOBAL__N_117InclusionRewriter12IncludedFileEESt10_Select1stIS7_ESt4lessIS1_ESaIS7_EE9_M_mbeginEv(ptr noundef nonnull align 8 dereferenceable(48) %0) #0 align 2 {
  %2 = alloca ptr, align 8
  store ptr %0, ptr %2, align 8
  %3 = load ptr, ptr %2, align 8
  %4 = getelementptr inbounds nuw %"class.std::_Rb_tree.241", ptr %3, i32 0, i32 0
  %5 = getelementptr inbounds i8, ptr %4, i64 8
  %6 = getelementptr inbounds nuw %"struct.std::_Rb_tree_header", ptr %5, i32 0, i32 0
  %7 = getelementptr inbounds nuw %"struct.std::_Rb_tree_node_base", ptr %6, i32 0, i32 1
  %8 = load ptr, ptr %7, align 8
  ret ptr %8
}

; Function Attrs: mustprogress nounwind uwtable
define linkonce_odr hidden void @_ZNSaISt13_Rb_tree_nodeISt4pairIKN5clang14SourceLocationEPKNS1_6ModuleEEEED2Ev(ptr noundef nonnull align 1 dereferenceable(1) %0) unnamed_addr #0 comdat align 2 {
  %2 = alloca ptr, align 8
  store ptr %0, ptr %2, align 8
  %3 = load ptr, ptr %2, align 8
  call void @_ZNSt15__new_allocatorISt13_Rb_tree_nodeISt4pairIKN5clang14SourceLocationEPKNS2_6ModuleEEEED2Ev(ptr noundef nonnull align 1 dereferenceable(1) %3) #11
  ret void
}

; Function Attrs: mustprogress nounwind uwtable
define linkonce_odr hidden noundef ptr @_ZNKSt8_Rb_treeIN5clang14SourceLocationESt4pairIKS1_PKNS0_6ModuleEESt10_Select1stIS7_ESt4lessIS1_ESaIS7_EE9_M_mbeginEv(ptr noundef nonnull align 8 dereferenceable(48) %0) #0 comdat align 2 {
  %2 = alloca ptr, align 8
  store ptr %0, ptr %2, align 8
  %3 = load ptr, ptr %2, align 8
  %4 = getelementptr inbounds nuw %"class.std::_Rb_tree.247", ptr %3, i32 0, i32 0
  %5 = getelementptr inbounds i8, ptr %4, i64 8
  %6 = getelementptr inbounds nuw %"struct.std::_Rb_tree_header", ptr %5, i32 0, i32 0
  %7 = getelementptr inbounds nuw %"struct.std::_Rb_tree_node_base", ptr %6, i32 0, i32 1
  %8 = load ptr, ptr %7, align 8
  ret ptr %8
}

; Function Attrs: mustprogress nounwind uwtable
define linkonce_odr hidden void @_ZNSaISt13_Rb_tree_nodeISt4pairIKN5clang14SourceLocationEbEEED2Ev(ptr noundef nonnull align 1 dereferenceable(1) %0) unnamed_addr #0 comdat align 2 {
  %2 = alloca ptr, align 8
  store ptr %0, ptr %2, align 8
  %3 = load ptr, ptr %2, align 8
  call void @_ZNSt15__new_allocatorISt13_Rb_tree_nodeISt4pairIKN5clang14SourceLocationEbEEED2Ev(ptr noundef nonnull align 1 dereferenceable(1) %3) #11
  ret void
}

; Function Attrs: mustprogress nounwind uwtable
define linkonce_odr hidden noundef ptr @_ZNKSt8_Rb_treeIN5clang14SourceLocationESt4pairIKS1_bESt10_Select1stIS4_ESt4lessIS1_ESaIS4_EE9_M_mbeginEv(ptr noundef nonnull align 8 dereferenceable(48) %0) #0 comdat align 2 {
  %2 = alloca ptr, align 8
  store ptr %0, ptr %2, align 8
  %3 = load ptr, ptr %2, align 8
  %4 = getelementptr inbounds nuw %"class.std::_Rb_tree.252", ptr %3, i32 0, i32 0
  %5 = getelementptr inbounds i8, ptr %4, i64 8
  %6 = getelementptr inbounds nuw %"struct.std::_Rb_tree_header", ptr %5, i32 0, i32 0
  %7 = getelementptr inbounds nuw %"struct.std::_Rb_tree_node_base", ptr %6, i32 0, i32 1
  %8 = load ptr, ptr %7, align 8
  ret ptr %8
}

; Function Attrs: mustprogress nounwind uwtable
define internal void @_ZNSt8_Rb_treeIN5clang14SourceLocationESt4pairIKS1_N12_GLOBAL__N_117InclusionRewriter12IncludedFileEESt10_Select1stIS7_ESt4lessIS1_ESaIS7_EE13_Rb_tree_implISB_Lb1EED2Ev(ptr noundef nonnull align 8 dereferenceable(48) %0) unnamed_addr #0 align 2 {
  %2 = alloca ptr, align 8
  store ptr %0, ptr %2, align 8
  %3 = load ptr, ptr %2, align 8
  call void @_ZNSaISt13_Rb_tree_nodeISt4pairIKN5clang14SourceLocationEN12_GLOBAL__N_117InclusionRewriter12IncludedFileEEEED2Ev(ptr noundef nonnull align 1 dereferenceable(1) %3) #11
  ret void
}

; Function Attrs: mustprogress nounwind uwtable
define internal noundef ptr @_ZNSt8_Rb_treeIN5clang14SourceLocationESt4pairIKS1_N12_GLOBAL__N_117InclusionRewriter12IncludedFileEESt10_Select1stIS7_ESt4lessIS1_ESaIS7_EE8_M_beginEv(ptr noundef nonnull align 8 dereferenceable(48) %0) #0 align 2 {
  %2 = alloca ptr, align 8
  store ptr %0, ptr %2, align 8
  %3 = load ptr, ptr %2, align 8
  %4 = call noundef ptr @_ZNKSt8_Rb_treeIN5clang14SourceLocationESt4pairIKS1_N12_GLOBAL__N_117InclusionRewriter12IncludedFileEESt10_Select1stIS7_ESt4lessIS1_ESaIS7_EE9_M_mbeginEv(ptr noundef nonnull align 8 dereferenceable(48) %3) #11
  ret ptr %4
}

; Function Attrs: mustprogress nounwind uwtable
define linkonce_odr hidden void @_ZNSt8_Rb_treeIN5clang14SourceLocationESt4pairIKS1_PKNS0_6ModuleEESt10_Select1stIS7_ESt4lessIS1_ESaIS7_EE13_Rb_tree_implISB_Lb1EED2Ev(ptr noundef nonnull align 8 dereferenceable(48) %0) unnamed_addr #0 comdat align 2 {
  %2 = alloca ptr, align 8
  store ptr %0, ptr %2, align 8
  %3 = load ptr, ptr %2, align 8
  call void @_ZNSaISt13_Rb_tree_nodeISt4pairIKN5clang14SourceLocationEPKNS1_6ModuleEEEED2Ev(ptr noundef nonnull align 1 dereferenceable(1) %3) #11
  ret void
}

; Function Attrs: mustprogress nounwind uwtable
define linkonce_odr hidden noundef ptr @_ZNSt8_Rb_treeIN5clang14SourceLocationESt4pairIKS1_PKNS0_6ModuleEESt10_Select1stIS7_ESt4lessIS1_ESaIS7_EE8_M_beginEv(ptr noundef nonnull align 8 dereferenceable(48) %0) #0 comdat align 2 {
  %2 = alloca ptr, align 8
  store ptr %0, ptr %2, align 8
  %3 = load ptr, ptr %2, align 8
  %4 = call noundef ptr @_ZNKSt8_Rb_treeIN5clang14SourceLocationESt4pairIKS1_PKNS0_6ModuleEESt10_Select1stIS7_ESt4lessIS1_ESaIS7_EE9_M_mbeginEv(ptr noundef nonnull align 8 dereferenceable(48) %3) #11
  ret ptr %4
}

; Function Attrs: mustprogress nounwind uwtable
define linkonce_odr hidden void @_ZNSt8_Rb_treeIN5clang14SourceLocationESt4pairIKS1_bESt10_Select1stIS4_ESt4lessIS1_ESaIS4_EE13_Rb_tree_implIS8_Lb1EED2Ev(ptr noundef nonnull align 8 dereferenceable(48) %0) unnamed_addr #0 comdat align 2 {
  %2 = alloca ptr, align 8
  store ptr %0, ptr %2, align 8
  %3 = load ptr, ptr %2, align 8
  call void @_ZNSaISt13_Rb_tree_nodeISt4pairIKN5clang14SourceLocationEbEEED2Ev(ptr noundef nonnull align 1 dereferenceable(1) %3) #11
  ret void
}

; Function Attrs: mustprogress nounwind uwtable
define linkonce_odr hidden noundef ptr @_ZNSt8_Rb_treeIN5clang14SourceLocationESt4pairIKS1_bESt10_Select1stIS4_ESt4lessIS1_ESaIS4_EE8_M_beginEv(ptr noundef nonnull align 8 dereferenceable(48) %0) #0 comdat align 2 {
  %2 = alloca ptr, align 8
  store ptr %0, ptr %2, align 8
  %3 = load ptr, ptr %2, align 8
  %4 = call noundef ptr @_ZNKSt8_Rb_treeIN5clang14SourceLocationESt4pairIKS1_bESt10_Select1stIS4_ESt4lessIS1_ESaIS4_EE9_M_mbeginEv(ptr noundef nonnull align 8 dereferenceable(48) %3) #11
  ret ptr %4
}

; Function Attrs: mustprogress nounwind uwtable
define internal void @_ZNSt8_Rb_treeIN5clang14SourceLocationESt4pairIKS1_N12_GLOBAL__N_117InclusionRewriter12IncludedFileEESt10_Select1stIS7_ESt4lessIS1_ESaIS7_EED2Ev(ptr noundef nonnull align 8 dereferenceable(48) %0) unnamed_addr #0 align 2 {
  %2 = alloca ptr, align 8
  store ptr %0, ptr %2, align 8
  %3 = load ptr, ptr %2, align 8
  %4 = call noundef ptr @_ZNSt8_Rb_treeIN5clang14SourceLocationESt4pairIKS1_N12_GLOBAL__N_117InclusionRewriter12IncludedFileEESt10_Select1stIS7_ESt4lessIS1_ESaIS7_EE8_M_beginEv(ptr noundef nonnull align 8 dereferenceable(48) %3) #11
  call void @_ZNSt8_Rb_treeIN5clang14SourceLocationESt4pairIKS1_N12_GLOBAL__N_117InclusionRewriter12IncludedFileEESt10_Select1stIS7_ESt4lessIS1_ESaIS7_EE8_M_eraseEPSt13_Rb_tree_nodeIS7_E(ptr noundef nonnull align 8 dereferenceable(48) %3, ptr noundef %4)
  %5 = getelementptr inbounds nuw %"class.std::_Rb_tree.241", ptr %3, i32 0, i32 0
  call void @_ZNSt8_Rb_treeIN5clang14SourceLocationESt4pairIKS1_N12_GLOBAL__N_117InclusionRewriter12IncludedFileEESt10_Select1stIS7_ESt4lessIS1_ESaIS7_EE13_Rb_tree_implISB_Lb1EED2Ev(ptr noundef nonnull align 8 dereferenceable(48) %5) #11
  ret void
}

; Function Attrs: mustprogress nounwind uwtable
define linkonce_odr hidden void @_ZNSt8_Rb_treeIN5clang14SourceLocationESt4pairIKS1_PKNS0_6ModuleEESt10_Select1stIS7_ESt4lessIS1_ESaIS7_EED2Ev(ptr noundef nonnull align 8 dereferenceable(48) %0) unnamed_addr #0 comdat align 2 {
  %2 = alloca ptr, align 8
  store ptr %0, ptr %2, align 8
  %3 = load ptr, ptr %2, align 8
  %4 = call noundef ptr @_ZNSt8_Rb_treeIN5clang14SourceLocationESt4pairIKS1_PKNS0_6ModuleEESt10_Select1stIS7_ESt4lessIS1_ESaIS7_EE8_M_beginEv(ptr noundef nonnull align 8 dereferenceable(48) %3) #11
  call void @_ZNSt8_Rb_treeIN5clang14SourceLocationESt4pairIKS1_PKNS0_6ModuleEESt10_Select1stIS7_ESt4lessIS1_ESaIS7_EE8_M_eraseEPSt13_Rb_tree_nodeIS7_E(ptr noundef nonnull align 8 dereferenceable(48) %3, ptr noundef %4)
  %5 = getelementptr inbounds nuw %"class.std::_Rb_tree.247", ptr %3, i32 0, i32 0
  call void @_ZNSt8_Rb_treeIN5clang14SourceLocationESt4pairIKS1_PKNS0_6ModuleEESt10_Select1stIS7_ESt4lessIS1_ESaIS7_EE13_Rb_tree_implISB_Lb1EED2Ev(ptr noundef nonnull align 8 dereferenceable(48) %5) #11
  ret void
}

; Function Attrs: mustprogress nounwind uwtable
define linkonce_odr hidden void @_ZNSt8_Rb_treeIN5clang14SourceLocationESt4pairIKS1_bESt10_Select1stIS4_ESt4lessIS1_ESaIS4_EED2Ev(ptr noundef nonnull align 8 dereferenceable(48) %0) unnamed_addr #0 comdat align 2 {
  %2 = alloca ptr, align 8
  store ptr %0, ptr %2, align 8
  %3 = load ptr, ptr %2, align 8
  %4 = call noundef ptr @_ZNSt8_Rb_treeIN5clang14SourceLocationESt4pairIKS1_bESt10_Select1stIS4_ESt4lessIS1_ESaIS4_EE8_M_beginEv(ptr noundef nonnull align 8 dereferenceable(48) %3) #11
  call void @_ZNSt8_Rb_treeIN5clang14SourceLocationESt4pairIKS1_bESt10_Select1stIS4_ESt4lessIS1_ESaIS4_EE8_M_eraseEPSt13_Rb_tree_nodeIS4_E(ptr noundef nonnull align 8 dereferenceable(48) %3, ptr noundef %4)
  %5 = getelementptr inbounds nuw %"class.std::_Rb_tree.252", ptr %3, i32 0, i32 0
  call void @_ZNSt8_Rb_treeIN5clang14SourceLocationESt4pairIKS1_bESt10_Select1stIS4_ESt4lessIS1_ESaIS4_EE13_Rb_tree_implIS8_Lb1EED2Ev(ptr noundef nonnull align 8 dereferenceable(48) %5) #11
  ret void
}

; Function Attrs: mustprogress nounwind uwtable
define internal void @_ZNSt3mapIN5clang14SourceLocationEN12_GLOBAL__N_117InclusionRewriter12IncludedFileESt4lessIS1_ESaISt4pairIKS1_S4_EEED2Ev(ptr noundef nonnull align 8 dereferenceable(48) %0) unnamed_addr #0 align 2 {
  %2 = alloca ptr, align 8
  store ptr %0, ptr %2, align 8
  %3 = load ptr, ptr %2, align 8
  %4 = getelementptr inbounds nuw %"class.std::map.240", ptr %3, i32 0, i32 0
  call void @_ZNSt8_Rb_treeIN5clang14SourceLocationESt4pairIKS1_N12_GLOBAL__N_117InclusionRewriter12IncludedFileEESt10_Select1stIS7_ESt4lessIS1_ESaIS7_EED2Ev(ptr noundef nonnull align 8 dereferenceable(48) %4) #11
  ret void
}

; Function Attrs: mustprogress nounwind uwtable
define linkonce_odr hidden void @_ZNSt3mapIN5clang14SourceLocationEPKNS0_6ModuleESt4lessIS1_ESaISt4pairIKS1_S4_EEED2Ev(ptr noundef nonnull align 8 dereferenceable(48) %0) unnamed_addr #0 comdat align 2 {
  %2 = alloca ptr, align 8
  store ptr %0, ptr %2, align 8
  %3 = load ptr, ptr %2, align 8
  %4 = getelementptr inbounds nuw %"class.std::map.246", ptr %3, i32 0, i32 0
  call void @_ZNSt8_Rb_treeIN5clang14SourceLocationESt4pairIKS1_PKNS0_6ModuleEESt10_Select1stIS7_ESt4lessIS1_ESaIS7_EED2Ev(ptr noundef nonnull align 8 dereferenceable(48) %4) #11
  ret void
}

; Function Attrs: mustprogress nounwind uwtable
define linkonce_odr hidden void @_ZNSt3mapIN5clang14SourceLocationEbSt4lessIS1_ESaISt4pairIKS1_bEEED2Ev(ptr noundef nonnull align 8 dereferenceable(48) %0) unnamed_addr #0 comdat align 2 {
  %2 = alloca ptr, align 8
  store ptr %0, ptr %2, align 8
  %3 = load ptr, ptr %2, align 8
  %4 = getelementptr inbounds nuw %"class.std::map.251", ptr %3, i32 0, i32 0
  call void @_ZNSt8_Rb_treeIN5clang14SourceLocationESt4pairIKS1_bESt10_Select1stIS4_ESt4lessIS1_ESaIS4_EED2Ev(ptr noundef nonnull align 8 dereferenceable(48) %4) #11
  ret void
}

; Function Attrs: mustprogress nounwind uwtable
define internal void @_ZN12_GLOBAL__N_117InclusionRewriterD2Ev(ptr noundef nonnull align 8 dereferenceable(284) %0) unnamed_addr #0 align 2 {
  %2 = alloca ptr, align 8
  store ptr %0, ptr %2, align 8
  %3 = load ptr, ptr %2, align 8
  store ptr getelementptr inbounds inrange(-16, 384) ({ [50 x ptr] }, ptr @_ZTVN12_GLOBAL__N_117InclusionRewriterE, i32 0, i32 0, i32 2), ptr %3, align 8
  %4 = getelementptr inbounds nuw %"class.(anonymous namespace)::InclusionRewriter", ptr %3, i32 0, i32 12
  call void @_ZNSt3mapIN5clang14SourceLocationEbSt4lessIS1_ESaISt4pairIKS1_bEEED2Ev(ptr noundef nonnull align 8 dereferenceable(48) %4) #11
  %5 = getelementptr inbounds nuw %"class.(anonymous namespace)::InclusionRewriter", ptr %3, i32 0, i32 11
  call void @_ZNSt3mapIN5clang14SourceLocationEPKNS0_6ModuleESt4lessIS1_ESaISt4pairIKS1_S4_EEED2Ev(ptr noundef nonnull align 8 dereferenceable(48) %5) #11
  %6 = getelementptr inbounds nuw %"class.(anonymous namespace)::InclusionRewriter", ptr %3, i32 0, i32 10
  call void @_ZNSt3mapIN5clang14SourceLocationEPKNS0_6ModuleESt4lessIS1_ESaISt4pairIKS1_S4_EEED2Ev(ptr noundef nonnull align 8 dereferenceable(48) %6) #11
  %7 = getelementptr inbounds nuw %"class.(anonymous namespace)::InclusionRewriter", ptr %3, i32 0, i32 9
  call void @_ZNSt3mapIN5clang14SourceLocationEN12_GLOBAL__N_117InclusionRewriter12IncludedFileESt4lessIS1_ESaISt4pairIKS1_S4_EEED2Ev(ptr noundef nonnull align 8 dereferenceable(48) %7) #11
  call void @_ZN5clang11PPCallbacksD2Ev(ptr noundef nonnull align 8 dereferenceable(8) %3) #11
  ret void
}