; Function Attrs: mustprogress nounwind uwtable
define internal void @_ZN12_GLOBAL__N_117InclusionRewriterD2Ev(ptr noundef nonnull align 8 dereferenceable(284) %0) unnamed_addr #0 align 2 {
  store ptr getelementptr inbounds inrange(-16, 384) (i8, ptr @_ZTVN12_GLOBAL__N_117InclusionRewriterE, i64 16), ptr %0, align 8
  %2 = getelementptr inbounds nuw i8, ptr %0, i64 232
  %3 = getelementptr inbounds i8, ptr %0, i64 248
  %4 = load ptr, ptr %3, align 8
  tail call void @_ZNSt8_Rb_treeIN5clang14SourceLocationESt4pairIKS1_bESt10_Select1stIS4_ESt4lessIS1_ESaIS4_EE8_M_eraseEPSt13_Rb_tree_nodeIS4_E(ptr noundef nonnull align 8 dereferenceable(48) %2, ptr noundef %4)
  %5 = getelementptr inbounds nuw i8, ptr %0, i64 184
  %6 = getelementptr inbounds i8, ptr %0, i64 200
  %7 = load ptr, ptr %6, align 8
  tail call void @_ZNSt8_Rb_treeIN5clang14SourceLocationESt4pairIKS1_PKNS0_6ModuleEESt10_Select1stIS7_ESt4lessIS1_ESaIS7_EE8_M_eraseEPSt13_Rb_tree_nodeIS7_E(ptr noundef nonnull align 8 dereferenceable(48) %5, ptr noundef %7)
  %8 = getelementptr inbounds nuw i8, ptr %0, i64 136
  %9 = getelementptr inbounds i8, ptr %0, i64 152
  %10 = load ptr, ptr %9, align 8
  tail call void @_ZNSt8_Rb_treeIN5clang14SourceLocationESt4pairIKS1_PKNS0_6ModuleEESt10_Select1stIS7_ESt4lessIS1_ESaIS7_EE8_M_eraseEPSt13_Rb_tree_nodeIS7_E(ptr noundef nonnull align 8 dereferenceable(48) %8, ptr noundef %10)
  %11 = getelementptr inbounds i8, ptr %0, i64 104
  %.val = load ptr, ptr %11, align 8
  tail call fastcc void @_ZNSt8_Rb_treeIN5clang14SourceLocationESt4pairIKS1_N12_GLOBAL__N_117InclusionRewriter12IncludedFileEESt10_Select1stIS7_ESt4lessIS1_ESaIS7_EE8_M_eraseEPSt13_Rb_tree_nodeIS7_E(ptr noundef %.val)
  tail call void @_ZN5clang11PPCallbacksD2Ev(ptr noundef nonnull align 8 dereferenceable(8) %0) #17
  ret void
}